; Function Attrs: nounwind uwtable
define hidden void @zim_MultipleIterator_getFlags(ptr nocapture noundef readonly %0, ptr nocapture noundef writeonly %1) #0 {
  %3 = getelementptr inbounds i8, ptr %0, i64 44
  %4 = load i32, ptr %3, align 4
  %.not = icmp eq i32 %4, 0
  br i1 %.not, label %.critedge, label %5

5:                                                ; preds = %2
  tail call void @zend_wrong_parameters_none_error() #10
  %6 = load ptr, ptr getelementptr inbounds (%struct._zend_executor_globals, ptr @executor_globals, i64 0, i32 50), align 8
  %7 = icmp ne ptr %6, null
  tail call void @llvm.assume(i1 %7)
  br label %13

.critedge:                                        ; preds = %2
  %8 = getelementptr inbounds i8, ptr %0, i64 32
  %9 = load ptr, ptr %8, align 8
  %10 = getelementptr inbounds i8, ptr %9, i64 -16
  %11 = load i64, ptr %10, align 8
  store i64 %11, ptr %1, align 8
  %12 = getelementptr inbounds i8, ptr %1, i64 8
  store i32 4, ptr %12, align 8
  br label %13

13:                                               ; preds = %.critedge, %5
  ret void
}